target datalayout = "e-m:e-p270:32:32-p271:32:32-p272:64:64-i64:64-i128:128-f80:128-n8:16:32:64-S128"
target triple = "x86_64-pc-linux-gnu"

%"class.llvm::AddressSanitizerPass" = type { %"struct.llvm::AddressSanitizerOptions", i8, i8, i32, i32 }
%"struct.llvm::AddressSanitizerOptions" = type <{ i8, i8, i8, i8, i32, i32, i32, i8, [3 x i8] }>

; Function Attrs: mustprogress nounwind uwtable
define dso_local void @_ZN4llvm20AddressSanitizerPassC2ERKNS_23AddressSanitizerOptionsEbbNS_12AsanDtorKindENS_12AsanCtorKindE(ptr noundef nonnull align 4 dereferenceable(32) %0, ptr noundef nonnull align 4 dereferenceable(17) %1, i1 noundef zeroext %2, i1 noundef zeroext %3, i32 noundef %4, i32 noundef %5) unnamed_addr #1 align 2 {
  %7 = alloca ptr, align 8
  %8 = alloca ptr, align 8
  %9 = alloca i8, align 1
  %10 = alloca i8, align 1
  %11 = alloca i32, align 4
  %12 = alloca i32, align 4
  store ptr %0, ptr %7, align 8
  store ptr %1, ptr %8, align 8
  %13 = zext i1 %2 to i8
  store i8 %13, ptr %9, align 1
  %14 = zext i1 %3 to i8
  store i8 %14, ptr %10, align 1
  store i32 %4, ptr %11, align 4
  store i32 %5, ptr %12, align 4
  %15 = load ptr, ptr %7, align 8
  %16 = getelementptr inbounds nuw %"class.llvm::AddressSanitizerPass", ptr %15, i32 0, i32 0
  %17 = load ptr, ptr %8, align 8
  call void @llvm.memcpy.p0.p0.i64(ptr align 4 %16, ptr align 4 %17, i64 20, i1 false)
  %18 = getelementptr inbounds nuw %"class.llvm::AddressSanitizerPass", ptr %15, i32 0, i32 1
  %19 = load i8, ptr %9, align 1
  %20 = trunc i8 %19 to i1
  %21 = zext i1 %20 to i8
  store i8 %21, ptr %18, align 4
  %22 = getelementptr inbounds nuw %"class.llvm::AddressSanitizerPass", ptr %15, i32 0, i32 2
  %23 = load i8, ptr %10, align 1
  %24 = trunc i8 %23 to i1
  %25 = zext i1 %24 to i8
  store i8 %25, ptr %22, align 1
  %26 = getelementptr inbounds nuw %"class.llvm::AddressSanitizerPass", ptr %15, i32 0, i32 3
  %27 = load i32, ptr %11, align 4
  store i32 %27, ptr %26, align 4
  %28 = getelementptr inbounds nuw %"class.llvm::AddressSanitizerPass", ptr %15, i32 0, i32 4
  %29 = load i32, ptr %12, align 4
  store i32 %29, ptr %28, align 4
  ret void
}