; Function Attrs: mustprogress nofree norecurse nosync nounwind willreturn memory(argmem: readwrite) uwtable
define dso_local void @_ZN4llvm20AddressSanitizerPassC2ERKNS_23AddressSanitizerOptionsEbbNS_12AsanDtorKindENS_12AsanCtorKindE(ptr noundef nonnull writeonly align 4 captures(none) dereferenceable(32) initializes((0, 22), (24, 32)) %0, ptr noundef nonnull readonly align 4 captures(none) dereferenceable(17) %1, i1 noundef zeroext %2, i1 noundef zeroext %3, i32 noundef %4, i32 noundef %5) unnamed_addr #4 align 2 {
  %7 = zext i1 %2 to i8
  %8 = zext i1 %3 to i8
  tail call void @llvm.memcpy.p0.p0.i64(ptr noundef nonnull align 4 dereferenceable(20) %0, ptr noundef nonnull align 4 dereferenceable(20) %1, i64 20, i1 false)
  %9 = getelementptr inbounds nuw i8, ptr %0, i64 20
  store i8 %7, ptr %9, align 4
  %10 = getelementptr inbounds nuw i8, ptr %0, i64 21
  store i8 %8, ptr %10, align 1
  %11 = getelementptr inbounds nuw i8, ptr %0, i64 24
  store i32 %4, ptr %11, align 4
  %12 = getelementptr inbounds nuw i8, ptr %0, i64 28
  store i32 %5, ptr %12, align 4
  ret void
}